target datalayout = "e-m:e-p270:32:32-p271:32:32-p272:64:64-i64:64-i128:128-f80:128-n8:16:32:64-S128"
target triple = "x86_64-unknown-linux-gnu"

%"class.std::__cxx11::basic_string" = type { %"struct.std::__cxx11::basic_string<char>::_Alloc_hider", i64, %union.anon.8 }
%"struct.std::__cxx11::basic_string<char>::_Alloc_hider" = type { ptr }
%union.anon.8 = type { i64, [8 x i8] }
%"class.std::allocator.5" = type { i8 }
%"class.Assimp::FBX::Token" = type <{ ptr, ptr, i32, [4 x i8], %union.anon, i32, [4 x i8] }>
%union.anon = type { i64 }

@.str.9 = private unnamed_addr constant [24 x i8] c"expected TOK_DATA token\00", align 1
@.str.19 = private unnamed_addr constant [56 x i8] c"failed to parse S(tring), unexpected data type (binary)\00", align 1
@.str.20 = private unnamed_addr constant [36 x i8] c"token is too short to hold a string\00", align 1
@.str.21 = private unnamed_addr constant [30 x i8] c"expected double quoted string\00", align 1

; Function Attrs: mustprogress nounwind uwtable
define internal noundef i32 @_ZN12_GLOBAL__N_19SafeParseIiEET_PKcS3_(ptr noundef %data, ptr noundef %end) #0 {
entry:
  %data.addr = alloca ptr, align 8
  %end.addr = alloca ptr, align 8
  %result = alloca i32, align 4
  store ptr %data, ptr %data.addr, align 8
  store ptr %end, ptr %end.addr, align 8
  store i32 0, ptr %result, align 4
  %0 = load ptr, ptr %data.addr, align 8
  call void @llvm.memcpy.p0.p0.i64(ptr align 4 %result, ptr align 1 %0, i64 4, i1 false)
  %1 = load i32, ptr %result, align 4
  ret i32 %1
}

; Function Attrs: mustprogress nounwind uwtable
define linkonce_odr hidden noundef ptr @_ZNK6Assimp3FBX5Token3endEv(ptr noundef nonnull align 8 dereferenceable(36) %this) #0 comdat align 2 {
entry:
  %this.addr = alloca ptr, align 8
  store ptr %this, ptr %this.addr, align 8
  %this1 = load ptr, ptr %this.addr, align 8
  %send = getelementptr inbounds %"class.Assimp::FBX::Token", ptr %this1, i32 0, i32 1
  %0 = load ptr, ptr %send, align 8
  ret ptr %0
}

; Function Attrs: mustprogress nounwind uwtable
define linkonce_odr hidden noundef ptr @_ZNK6Assimp3FBX5Token5beginEv(ptr noundef nonnull align 8 dereferenceable(36) %this) #0 comdat align 2 {
entry:
  %this.addr = alloca ptr, align 8
  store ptr %this, ptr %this.addr, align 8
  %this1 = load ptr, ptr %this.addr, align 8
  %sbegin = getelementptr inbounds %"class.Assimp::FBX::Token", ptr %this1, i32 0, i32 0
  %0 = load ptr, ptr %sbegin, align 8
  ret ptr %0
}

; Function Attrs: mustprogress nounwind uwtable
define linkonce_odr hidden noundef zeroext i1 @_ZNK6Assimp3FBX5Token8IsBinaryEv(ptr noundef nonnull align 8 dereferenceable(36) %this) #0 comdat align 2 {
entry:
  %this.addr = alloca ptr, align 8
  store ptr %this, ptr %this.addr, align 8
  %this1 = load ptr, ptr %this.addr, align 8
  %column = getelementptr inbounds %"class.Assimp::FBX::Token", ptr %this1, i32 0, i32 5
  %0 = load i32, ptr %column, align 8
  %cmp = icmp eq i32 %0, -1
  ret i1 %cmp
}

; Function Attrs: mustprogress nounwind uwtable
define linkonce_odr hidden noundef i32 @_ZNK6Assimp3FBX5Token4TypeEv(ptr noundef nonnull align 8 dereferenceable(36) %this) #0 comdat align 2 {
entry:
  %this.addr = alloca ptr, align 8
  store ptr %this, ptr %this.addr, align 8
  %this1 = load ptr, ptr %this.addr, align 8
  %type = getelementptr inbounds %"class.Assimp::FBX::Token", ptr %this1, i32 0, i32 2
  %0 = load i32, ptr %type, align 8
  ret i32 %0
}

; Function Attrs: mustprogress uwtable
define hidden void @_ZN6Assimp3FBX18ParseTokenAsStringB5cxx11ERKNS0_5TokenERPKc(ptr noalias sret(%"class.std::__cxx11::basic_string") align 8 %agg.result, ptr noundef nonnull align 8 dereferenceable(36) %t, ptr noundef nonnull align 8 dereferenceable(8) %err_out) #6 personality ptr @__gxx_personality_v0 {
entry:
  %result.ptr = alloca ptr, align 8
  %t.addr = alloca ptr, align 8
  %err_out.addr = alloca ptr, align 8
  %data = alloca ptr, align 8
  %len = alloca i32, align 4
  %ref.tmp = alloca %"class.std::allocator.5", align 1
  %exn.slot = alloca ptr, align 8
  %ehselector.slot = alloca i32, align 4
  %length = alloca i64, align 8
  %s = alloca ptr, align 8
  %e = alloca ptr, align 8
  %ref.tmp27 = alloca %"class.std::allocator.5", align 1
  store ptr %agg.result, ptr %result.ptr, align 8
  store ptr %t, ptr %t.addr, align 8
  store ptr %err_out, ptr %err_out.addr, align 8
  %0 = load ptr, ptr %err_out.addr, align 8
  store ptr null, ptr %0, align 8
  %1 = load ptr, ptr %t.addr, align 8
  %call = call noundef i32 @_ZNK6Assimp3FBX5Token4TypeEv(ptr noundef nonnull align 8 dereferenceable(36) %1)
  %cmp = icmp ne i32 %call, 2
  br i1 %cmp, label %if.then, label %if.end

if.then:                                          ; preds = %entry
  %2 = load ptr, ptr %err_out.addr, align 8
  store ptr @.str.9, ptr %2, align 8
  call void @_ZNSt7__cxx1112basic_stringIcSt11char_traitsIcESaIcEEC1Ev(ptr noundef nonnull align 8 dereferenceable(32) %agg.result) #5
  br label %return

if.end:                                           ; preds = %entry
  %3 = load ptr, ptr %t.addr, align 8
  %call1 = call noundef zeroext i1 @_ZNK6Assimp3FBX5Token8IsBinaryEv(ptr noundef nonnull align 8 dereferenceable(36) %3)
  br i1 %call1, label %if.then2, label %if.end11

if.then2:                                         ; preds = %if.end
  %4 = load ptr, ptr %t.addr, align 8
  %call3 = call noundef ptr @_ZNK6Assimp3FBX5Token5beginEv(ptr noundef nonnull align 8 dereferenceable(36) %4)
  store ptr %call3, ptr %data, align 8
  %5 = load ptr, ptr %data, align 8
  %arrayidx = getelementptr inbounds i8, ptr %5, i64 0
  %6 = load i8, ptr %arrayidx, align 1
  %conv = sext i8 %6 to i32
  %cmp4 = icmp ne i32 %conv, 83
  br i1 %cmp4, label %if.then5, label %if.end6

if.then5:                                         ; preds = %if.then2
  %7 = load ptr, ptr %err_out.addr, align 8
  store ptr @.str.19, ptr %7, align 8
  call void @_ZNSt7__cxx1112basic_stringIcSt11char_traitsIcESaIcEEC1Ev(ptr noundef nonnull align 8 dereferenceable(32) %agg.result) #5
  br label %return

if.end6:                                          ; preds = %if.then2
  %8 = load ptr, ptr %data, align 8
  %add.ptr = getelementptr inbounds i8, ptr %8, i64 1
  %9 = load ptr, ptr %t.addr, align 8
  %call7 = call noundef ptr @_ZNK6Assimp3FBX5Token3endEv(ptr noundef nonnull align 8 dereferenceable(36) %9)
  %call8 = call noundef i32 @_ZN12_GLOBAL__N_19SafeParseIiEET_PKcS3_(ptr noundef %add.ptr, ptr noundef %call7)
  store i32 %call8, ptr %len, align 4
  %10 = load ptr, ptr %data, align 8
  %add.ptr9 = getelementptr inbounds i8, ptr %10, i64 5
  %11 = load i32, ptr %len, align 4
  %conv10 = sext i32 %11 to i64
  call void @_ZNSaIcEC1Ev(ptr noundef nonnull align 1 dereferenceable(1) %ref.tmp) #5
  invoke void @_ZNSt7__cxx1112basic_stringIcSt11char_traitsIcESaIcEEC1EPKcmRKS3_(ptr noundef nonnull align 8 dereferenceable(32) %agg.result, ptr noundef %add.ptr9, i64 noundef %conv10, ptr noundef nonnull align 1 dereferenceable(1) %ref.tmp)
          to label %invoke.cont unwind label %lpad

invoke.cont:                                      ; preds = %if.end6
  call void @_ZNSaIcED1Ev(ptr noundef nonnull align 1 dereferenceable(1) %ref.tmp) #5
  br label %return

lpad:                                             ; preds = %if.end6
  %12 = landingpad { ptr, i32 }
          cleanup
  %13 = extractvalue { ptr, i32 } %12, 0
  store ptr %13, ptr %exn.slot, align 8
  %14 = extractvalue { ptr, i32 } %12, 1
  store i32 %14, ptr %ehselector.slot, align 4
  call void @_ZNSaIcED1Ev(ptr noundef nonnull align 1 dereferenceable(1) %ref.tmp) #5
  br label %eh.resume

if.end11:                                         ; preds = %if.end
  %15 = load ptr, ptr %t.addr, align 8
  %call12 = call noundef ptr @_ZNK6Assimp3FBX5Token3endEv(ptr noundef nonnull align 8 dereferenceable(36) %15)
  %16 = load ptr, ptr %t.addr, align 8
  %call13 = call noundef ptr @_ZNK6Assimp3FBX5Token5beginEv(ptr noundef nonnull align 8 dereferenceable(36) %16)
  %sub.ptr.lhs.cast = ptrtoint ptr %call12 to i64
  %sub.ptr.rhs.cast = ptrtoint ptr %call13 to i64
  %sub.ptr.sub = sub i64 %sub.ptr.lhs.cast, %sub.ptr.rhs.cast
  store i64 %sub.ptr.sub, ptr %length, align 8
  %17 = load i64, ptr %length, align 8
  %cmp14 = icmp ult i64 %17, 2
  br i1 %cmp14, label %if.then15, label %if.end16

if.then15:                                        ; preds = %if.end11
  %18 = load ptr, ptr %err_out.addr, align 8
  store ptr @.str.20, ptr %18, align 8
  call void @_ZNSt7__cxx1112basic_stringIcSt11char_traitsIcESaIcEEC1Ev(ptr noundef nonnull align 8 dereferenceable(32) %agg.result) #5
  br label %return

if.end16:                                         ; preds = %if.end11
  %19 = load ptr, ptr %t.addr, align 8
  %call17 = call noundef ptr @_ZNK6Assimp3FBX5Token5beginEv(ptr noundef nonnull align 8 dereferenceable(36) %19)
  store ptr %call17, ptr %s, align 8
  %20 = load ptr, ptr %t.addr, align 8
  %call18 = call noundef ptr @_ZNK6Assimp3FBX5Token3endEv(ptr noundef nonnull align 8 dereferenceable(36) %20)
  %add.ptr19 = getelementptr inbounds i8, ptr %call18, i64 -1
  store ptr %add.ptr19, ptr %e, align 8
  %21 = load ptr, ptr %s, align 8
  %22 = load i8, ptr %21, align 1
  %conv20 = sext i8 %22 to i32
  %cmp21 = icmp ne i32 %conv20, 34
  br i1 %cmp21, label %if.then24, label %lor.lhs.false

lor.lhs.false:                                    ; preds = %if.end16
  %23 = load ptr, ptr %e, align 8
  %24 = load i8, ptr %23, align 1
  %conv22 = sext i8 %24 to i32
  %cmp23 = icmp ne i32 %conv22, 34
  br i1 %cmp23, label %if.then24, label %if.end25

if.then24:                                        ; preds = %lor.lhs.false, %if.end16
  %25 = load ptr, ptr %err_out.addr, align 8
  store ptr @.str.21, ptr %25, align 8
  call void @_ZNSt7__cxx1112basic_stringIcSt11char_traitsIcESaIcEEC1Ev(ptr noundef nonnull align 8 dereferenceable(32) %agg.result) #5
  br label %return

if.end25:                                         ; preds = %lor.lhs.false
  %26 = load ptr, ptr %s, align 8
  %add.ptr26 = getelementptr inbounds i8, ptr %26, i64 1
  %27 = load i64, ptr %length, align 8
  %sub = sub i64 %27, 2
  call void @_ZNSaIcEC1Ev(ptr noundef nonnull align 1 dereferenceable(1) %ref.tmp27) #5
  invoke void @_ZNSt7__cxx1112basic_stringIcSt11char_traitsIcESaIcEEC1EPKcmRKS3_(ptr noundef nonnull align 8 dereferenceable(32) %agg.result, ptr noundef %add.ptr26, i64 noundef %sub, ptr noundef nonnull align 1 dereferenceable(1) %ref.tmp27)
          to label %invoke.cont29 unwind label %lpad28

invoke.cont29:                                    ; preds = %if.end25
  call void @_ZNSaIcED1Ev(ptr noundef nonnull align 1 dereferenceable(1) %ref.tmp27) #5
  br label %return

lpad28:                                           ; preds = %if.end25
  %28 = landingpad { ptr, i32 }
          cleanup
  %29 = extractvalue { ptr, i32 } %28, 0
  store ptr %29, ptr %exn.slot, align 8
  %30 = extractvalue { ptr, i32 } %28, 1
  store i32 %30, ptr %ehselector.slot, align 4
  call void @_ZNSaIcED1Ev(ptr noundef nonnull align 1 dereferenceable(1) %ref.tmp27) #5
  br label %eh.resume

return:                                           ; preds = %invoke.cont29, %if.then24, %if.then15, %invoke.cont, %if.then5, %if.then
  ret void

eh.resume:                                        ; preds = %lpad28, %lpad
  %exn = load ptr, ptr %exn.slot, align 8
  %sel = load i32, ptr %ehselector.slot, align 4
  %lpad.val = insertvalue { ptr, i32 } poison, ptr %exn, 0
  %lpad.val30 = insertvalue { ptr, i32 } %lpad.val, i32 %sel, 1
  resume { ptr, i32 } %lpad.val30
}