; Function Attrs: mustprogress uwtable
define hidden void @_ZN6Assimp3FBX18ParseTokenAsStringB5cxx11ERKNS0_5TokenERPKc(ptr noalias sret(%"class.std::__cxx11::basic_string") align 8 %agg.result, ptr nocapture noundef nonnull readonly align 8 dereferenceable(36) %t, ptr nocapture noundef nonnull writeonly align 8 dereferenceable(8) %err_out) local_unnamed_addr #3 personality ptr @__gxx_personality_v0 {
entry:
  %ref.tmp = alloca %"class.std::allocator.5", align 1
  %ref.tmp27 = alloca %"class.std::allocator.5", align 1
  store ptr null, ptr %err_out, align 8
  %type.i = getelementptr inbounds i8, ptr %t, i64 16
  %0 = load i32, ptr %type.i, align 8
  %cmp.not = icmp eq i32 %0, 2
  br i1 %cmp.not, label %if.end, label %if.then

if.then:                                          ; preds = %entry
  store ptr @.str.9, ptr %err_out, align 8
  tail call void @_ZNSt7__cxx1112basic_stringIcSt11char_traitsIcESaIcEEC1Ev(ptr noundef nonnull align 8 dereferenceable(32) %agg.result) #21
  br label %return

if.end:                                           ; preds = %entry
  %column.i = getelementptr inbounds i8, ptr %t, i64 32
  %1 = load i32, ptr %column.i, align 8
  %cmp.i = icmp eq i32 %1, -1
  br i1 %cmp.i, label %if.then2, label %if.end11

if.then2:                                         ; preds = %if.end
  %2 = load ptr, ptr %t, align 8
  %3 = load i8, ptr %2, align 1
  %cmp4.not = icmp eq i8 %3, 83
  br i1 %cmp4.not, label %if.end6, label %if.then5

if.then5:                                         ; preds = %if.then2
  store ptr @.str.19, ptr %err_out, align 8
  tail call void @_ZNSt7__cxx1112basic_stringIcSt11char_traitsIcESaIcEEC1Ev(ptr noundef nonnull align 8 dereferenceable(32) %agg.result) #21
  br label %return

if.end6:                                          ; preds = %if.then2
  %add.ptr = getelementptr inbounds i8, ptr %2, i64 1
  %add.ptr.val = load i32, ptr %add.ptr, align 1
  %add.ptr9 = getelementptr inbounds i8, ptr %2, i64 5
  %conv10 = sext i32 %add.ptr.val to i64
  call void @_ZNSaIcEC1Ev(ptr noundef nonnull align 1 dereferenceable(1) %ref.tmp) #21
  invoke void @_ZNSt7__cxx1112basic_stringIcSt11char_traitsIcESaIcEEC1EPKcmRKS3_(ptr noundef nonnull align 8 dereferenceable(32) %agg.result, ptr noundef nonnull %add.ptr9, i64 noundef %conv10, ptr noundef nonnull align 1 dereferenceable(1) %ref.tmp)
          to label %invoke.cont unwind label %lpad

invoke.cont:                                      ; preds = %if.end6
  call void @_ZNSaIcED1Ev(ptr noundef nonnull align 1 dereferenceable(1) %ref.tmp) #21
  br label %return

lpad:                                             ; preds = %if.end6
  %4 = landingpad { ptr, i32 }
          cleanup
  br label %eh.resume

if.end11:                                         ; preds = %if.end
  %send.i17 = getelementptr inbounds i8, ptr %t, i64 8
  %5 = load ptr, ptr %send.i17, align 8
  %6 = load ptr, ptr %t, align 8
  %sub.ptr.lhs.cast = ptrtoint ptr %5 to i64
  %sub.ptr.rhs.cast = ptrtoint ptr %6 to i64
  %sub.ptr.sub = sub i64 %sub.ptr.lhs.cast, %sub.ptr.rhs.cast
  %cmp14 = icmp ult i64 %sub.ptr.sub, 2
  br i1 %cmp14, label %if.then15, label %if.end16

if.then15:                                        ; preds = %if.end11
  store ptr @.str.20, ptr %err_out, align 8
  tail call void @_ZNSt7__cxx1112basic_stringIcSt11char_traitsIcESaIcEEC1Ev(ptr noundef nonnull align 8 dereferenceable(32) %agg.result) #21
  br label %return

if.end16:                                         ; preds = %if.end11
  %7 = load i8, ptr %6, align 1
  %cmp21.not = icmp eq i8 %7, 34
  br i1 %cmp21.not, label %lor.lhs.false, label %if.then24

lor.lhs.false:                                    ; preds = %if.end16
  %add.ptr19 = getelementptr inbounds i8, ptr %5, i64 -1
  %8 = load i8, ptr %add.ptr19, align 1
  %cmp23.not = icmp eq i8 %8, 34
  br i1 %cmp23.not, label %if.end25, label %if.then24

if.then24:                                        ; preds = %lor.lhs.false, %if.end16
  store ptr @.str.21, ptr %err_out, align 8
  tail call void @_ZNSt7__cxx1112basic_stringIcSt11char_traitsIcESaIcEEC1Ev(ptr noundef nonnull align 8 dereferenceable(32) %agg.result) #21
  br label %return

if.end25:                                         ; preds = %lor.lhs.false
  %add.ptr26 = getelementptr inbounds i8, ptr %6, i64 1
  %sub = add i64 %sub.ptr.sub, -2
  call void @_ZNSaIcEC1Ev(ptr noundef nonnull align 1 dereferenceable(1) %ref.tmp27) #21
  invoke void @_ZNSt7__cxx1112basic_stringIcSt11char_traitsIcESaIcEEC1EPKcmRKS3_(ptr noundef nonnull align 8 dereferenceable(32) %agg.result, ptr noundef nonnull %add.ptr26, i64 noundef %sub, ptr noundef nonnull align 1 dereferenceable(1) %ref.tmp27)
          to label %invoke.cont29 unwind label %lpad28

invoke.cont29:                                    ; preds = %if.end25
  call void @_ZNSaIcED1Ev(ptr noundef nonnull align 1 dereferenceable(1) %ref.tmp27) #21
  br label %return

lpad28:                                           ; preds = %if.end25
  %9 = landingpad { ptr, i32 }
          cleanup
  br label %eh.resume

return:                                           ; preds = %invoke.cont29, %if.then24, %if.then15, %invoke.cont, %if.then5, %if.then
  ret void

eh.resume:                                        ; preds = %lpad28, %lpad
  %ref.tmp27.sink = phi ptr [ %ref.tmp27, %lpad28 ], [ %ref.tmp, %lpad ]
  %.pn = phi { ptr, i32 } [ %9, %lpad28 ], [ %4, %lpad ]
  call void @_ZNSaIcED1Ev(ptr noundef nonnull align 1 dereferenceable(1) %ref.tmp27.sink) #21
  resume { ptr, i32 } %.pn
}